target datalayout = "e-m:e-p270:32:32-p271:32:32-p272:64:64-i64:64-i128:128-f80:128-n8:16:32:64-S128"
target triple = "x86_64-pc-linux-gnu"

%struct._packet_info = type { ptr, ptr, i32, i32, %struct.nstime_t, %struct.nstime_t, %struct.nstime_t, i8, ptr, ptr, ptr, ptr, %struct._address, %struct._address, %struct._address, %struct._address, %struct._address, %struct._address, i32, ptr, i8, [3 x i8], %struct.anon, i32, i32, i32, i32, ptr, i8, ptr, ptr, i16, i16, i32, i32, i16, i32, i32, ptr, ptr, ptr, i8, i8, i16, i16, i16, i32, i16, i16, ptr, ptr, ptr, ptr, ptr, i32, i32 }
%struct.nstime_t = type { i64, i32 }
%struct._address = type { i32, i32, ptr, ptr }
%struct.anon = type { i8, [3 x i8] }
%struct.e1ap_private_data_t = type { i32, i32, i32, ptr, i32 }
%struct.e1ap_ctx_t = type { i32, i32, i32, i32 }

@proto_e1ap = internal global i32 0, align 4
@e1ap_extension_dissector_table = internal global ptr null, align 8

; Function Attrs: null_pointer_is_valid sspstrong uwtable
define internal ptr @e1ap_get_private_data(ptr noundef %0) #0 {
  %2 = alloca ptr, align 8
  %3 = alloca ptr, align 8
  store ptr %0, ptr %2, align 8
  call void @llvm.lifetime.start.p0(i64 8, ptr %3) #5
  %4 = load ptr, ptr %2, align 8
  %5 = getelementptr inbounds nuw %struct._packet_info, ptr %4, i32 0, i32 51
  %6 = load ptr, ptr %5, align 8
  %7 = load ptr, ptr %2, align 8
  %8 = load i32, ptr @proto_e1ap, align 4
  %9 = call ptr @p_get_proto_data(ptr noundef %6, ptr noundef %7, i32 noundef %8, i32 noundef 0)
  store ptr %9, ptr %3, align 8
  %10 = load ptr, ptr %3, align 8
  %11 = icmp ne ptr %10, null
  br i1 %11, label %23, label %12

12:                                               ; preds = %1
  %13 = load ptr, ptr %2, align 8
  %14 = getelementptr inbounds nuw %struct._packet_info, ptr %13, i32 0, i32 51
  %15 = load ptr, ptr %14, align 8
  %16 = call noalias ptr @wmem_alloc0(ptr noundef %15, i64 noundef 32) #6
  store ptr %16, ptr %3, align 8
  %17 = load ptr, ptr %2, align 8
  %18 = getelementptr inbounds nuw %struct._packet_info, ptr %17, i32 0, i32 51
  %19 = load ptr, ptr %18, align 8
  %20 = load ptr, ptr %2, align 8
  %21 = load i32, ptr @proto_e1ap, align 4
  %22 = load ptr, ptr %3, align 8
  call void @p_add_proto_data(ptr noundef %19, ptr noundef %20, i32 noundef %21, i32 noundef 0, ptr noundef %22)
  br label %23

23:                                               ; preds = %12, %1
  %24 = load ptr, ptr %3, align 8
  call void @llvm.lifetime.end.p0(i64 8, ptr %3) #5
  ret ptr %24
}

; Function Attrs: null_pointer_is_valid sspstrong uwtable
define internal i32 @dissect_ProtocolExtensionFieldExtensionValue(ptr noundef %0, ptr noundef %1, ptr noundef %2, ptr noundef %3) #0 {
  %5 = alloca ptr, align 8
  %6 = alloca ptr, align 8
  %7 = alloca ptr, align 8
  %8 = alloca ptr, align 8
  %9 = alloca %struct.e1ap_ctx_t, align 4
  %10 = alloca ptr, align 8
  store ptr %0, ptr %5, align 8
  store ptr %1, ptr %6, align 8
  store ptr %2, ptr %7, align 8
  store ptr %3, ptr %8, align 8
  call void @llvm.lifetime.start.p0(i64 16, ptr %9) #5
  call void @llvm.lifetime.start.p0(i64 8, ptr %10) #5
  %11 = load ptr, ptr %6, align 8
  %12 = call ptr @e1ap_get_private_data(ptr noundef %11)
  store ptr %12, ptr %10, align 8
  %13 = load ptr, ptr %10, align 8
  %14 = getelementptr inbounds nuw %struct.e1ap_private_data_t, ptr %13, i32 0, i32 0
  %15 = load i32, ptr %14, align 8
  %16 = getelementptr inbounds nuw %struct.e1ap_ctx_t, ptr %9, i32 0, i32 0
  store i32 %15, ptr %16, align 4
  %17 = load ptr, ptr %10, align 8
  %18 = getelementptr inbounds nuw %struct.e1ap_private_data_t, ptr %17, i32 0, i32 1
  %19 = load i32, ptr %18, align 4
  %20 = getelementptr inbounds nuw %struct.e1ap_ctx_t, ptr %9, i32 0, i32 1
  store i32 %19, ptr %20, align 4
  %21 = load ptr, ptr %10, align 8
  %22 = getelementptr inbounds nuw %struct.e1ap_private_data_t, ptr %21, i32 0, i32 2
  %23 = load i32, ptr %22, align 8
  %24 = getelementptr inbounds nuw %struct.e1ap_ctx_t, ptr %9, i32 0, i32 2
  store i32 %23, ptr %24, align 4
  %25 = load ptr, ptr @e1ap_extension_dissector_table, align 8
  %26 = load ptr, ptr %10, align 8
  %27 = getelementptr inbounds nuw %struct.e1ap_private_data_t, ptr %26, i32 0, i32 2
  %28 = load i32, ptr %27, align 8
  %29 = load ptr, ptr %5, align 8
  %30 = load ptr, ptr %6, align 8
  %31 = load ptr, ptr %7, align 8
  %32 = call i32 @dissector_try_uint_with_data(ptr noundef %25, i32 noundef %28, ptr noundef %29, ptr noundef %30, ptr noundef %31, i1 noundef zeroext false, ptr noundef %9)
  %33 = icmp ne i32 %32, 0
  br i1 %33, label %34, label %37

34:                                               ; preds = %4
  %35 = load ptr, ptr %5, align 8
  %36 = call i32 @tvb_captured_length(ptr noundef %35)
  br label %38

37:                                               ; preds = %4
  br label %38

38:                                               ; preds = %37, %34
  %39 = phi i32 [ %36, %34 ], [ 0, %37 ]
  call void @llvm.lifetime.end.p0(i64 8, ptr %10) #5
  call void @llvm.lifetime.end.p0(i64 16, ptr %9) #5
  ret i32 %39
}